; Function Attrs: mustprogress nounwind uwtable
define void @_ZN5faiss11IndexRefineD2Ev(ptr noundef nonnull align 8 dereferenceable(64) %0) unnamed_addr #0 align 2 {
  store ptr getelementptr inbounds ({ [24 x ptr] }, ptr @_ZTVN5faiss11IndexRefineE, i64 0, i32 0, i64 2), ptr %0, align 8
  %2 = getelementptr inbounds i8, ptr %0, i64 56
  %3 = load i8, ptr %2, align 8
  %4 = and i8 %3, 1
  %.not = icmp eq i8 %4, 0
  br i1 %.not, label %13, label %5

5:                                                ; preds = %1
  %6 = getelementptr inbounds i8, ptr %0, i64 40
  %7 = load ptr, ptr %6, align 8
  %8 = icmp eq ptr %7, null
  br i1 %8, label %13, label %9

9:                                                ; preds = %5
  %10 = load ptr, ptr %7, align 8
  %11 = getelementptr inbounds i8, ptr %10, i64 8
  %12 = load ptr, ptr %11, align 8
  tail call void %12(ptr noundef nonnull align 8 dereferenceable(36) %7) #10
  br label %13

13:                                               ; preds = %5, %9, %1
  %14 = getelementptr inbounds i8, ptr %0, i64 57
  %15 = load i8, ptr %14, align 1
  %16 = and i8 %15, 1
  %.not2 = icmp eq i8 %16, 0
  br i1 %.not2, label %25, label %17

17:                                               ; preds = %13
  %18 = getelementptr inbounds i8, ptr %0, i64 48
  %19 = load ptr, ptr %18, align 8
  %20 = icmp eq ptr %19, null
  br i1 %20, label %25, label %21

21:                                               ; preds = %17
  %22 = load ptr, ptr %19, align 8
  %23 = getelementptr inbounds i8, ptr %22, i64 8
  %24 = load ptr, ptr %23, align 8
  tail call void %24(ptr noundef nonnull align 8 dereferenceable(36) %19) #10
  br label %25

25:                                               ; preds = %17, %21, %13
  tail call void @_ZN5faiss5IndexD2Ev(ptr noundef nonnull align 8 dereferenceable(36) %0) #10
  ret void
}